target datalayout = "e-m:e-p270:32:32-p271:32:32-p272:64:64-i64:64-i128:128-f80:128-n8:16:32:64-S128"
target triple = "x86_64-pc-linux-gnu"

%struct._generic_N_Vector = type { ptr, ptr, ptr }
%struct._N_VectorContent_Serial = type { i64, i32, ptr }

@.str.31 = private unnamed_addr constant [58 x i8] c"--------------------------------------------------------\0A\00", align 1
@.str.33 = private unnamed_addr constant [59 x i8] c"--------------------------------------------------------\0A\0A\00", align 1
@.str.56 = private unnamed_addr constant [20 x i8] c"returned t: %12.4e\0A\00", align 1
@.str.60 = private unnamed_addr constant [34 x i8] c"lambda(t0): %12.4e %12.4e %12.4e\0A\00", align 1
@.str.61 = private unnamed_addr constant [34 x i8] c"y(t0):      %12.4e %12.4e %12.4e\0A\00", align 1
@.str.62 = private unnamed_addr constant [34 x i8] c"dG/dp:      %12.4e %12.4e %12.4e\0A\00", align 1

; Function Attrs: nounwind uwtable
define internal void @PrintOutput(double noundef %0, ptr noundef %1, ptr noundef %2, ptr noundef %3) #0 {
  %5 = alloca double, align 8
  %6 = alloca ptr, align 8
  %7 = alloca ptr, align 8
  %8 = alloca ptr, align 8
  store double %0, ptr %5, align 8, !tbaa !18
  store ptr %1, ptr %6, align 8, !tbaa !16
  store ptr %2, ptr %7, align 8, !tbaa !16
  store ptr %3, ptr %8, align 8, !tbaa !16
  %9 = call i32 (ptr, ...) @printf(ptr noundef @.str.31)
  %10 = load double, ptr %5, align 8, !tbaa !18
  %11 = call i32 (ptr, ...) @printf(ptr noundef @.str.56, double noundef %10)
  %12 = load ptr, ptr %7, align 8, !tbaa !16
  %13 = getelementptr inbounds nuw %struct._generic_N_Vector, ptr %12, i32 0, i32 0
  %14 = load ptr, ptr %13, align 8, !tbaa !22
  %15 = getelementptr inbounds nuw %struct._N_VectorContent_Serial, ptr %14, i32 0, i32 2
  %16 = load ptr, ptr %15, align 8, !tbaa !25
  %17 = getelementptr inbounds double, ptr %16, i64 0
  %18 = load double, ptr %17, align 8, !tbaa !18
  %19 = load ptr, ptr %7, align 8, !tbaa !16
  %20 = getelementptr inbounds nuw %struct._generic_N_Vector, ptr %19, i32 0, i32 0
  %21 = load ptr, ptr %20, align 8, !tbaa !22
  %22 = getelementptr inbounds nuw %struct._N_VectorContent_Serial, ptr %21, i32 0, i32 2
  %23 = load ptr, ptr %22, align 8, !tbaa !25
  %24 = getelementptr inbounds double, ptr %23, i64 1
  %25 = load double, ptr %24, align 8, !tbaa !18
  %26 = load ptr, ptr %7, align 8, !tbaa !16
  %27 = getelementptr inbounds nuw %struct._generic_N_Vector, ptr %26, i32 0, i32 0
  %28 = load ptr, ptr %27, align 8, !tbaa !22
  %29 = getelementptr inbounds nuw %struct._N_VectorContent_Serial, ptr %28, i32 0, i32 2
  %30 = load ptr, ptr %29, align 8, !tbaa !25
  %31 = getelementptr inbounds double, ptr %30, i64 2
  %32 = load double, ptr %31, align 8, !tbaa !18
  %33 = call i32 (ptr, ...) @printf(ptr noundef @.str.60, double noundef %18, double noundef %25, double noundef %32)
  %34 = load ptr, ptr %6, align 8, !tbaa !16
  %35 = getelementptr inbounds nuw %struct._generic_N_Vector, ptr %34, i32 0, i32 0
  %36 = load ptr, ptr %35, align 8, !tbaa !22
  %37 = getelementptr inbounds nuw %struct._N_VectorContent_Serial, ptr %36, i32 0, i32 2
  %38 = load ptr, ptr %37, align 8, !tbaa !25
  %39 = getelementptr inbounds double, ptr %38, i64 0
  %40 = load double, ptr %39, align 8, !tbaa !18
  %41 = load ptr, ptr %6, align 8, !tbaa !16
  %42 = getelementptr inbounds nuw %struct._generic_N_Vector, ptr %41, i32 0, i32 0
  %43 = load ptr, ptr %42, align 8, !tbaa !22
  %44 = getelementptr inbounds nuw %struct._N_VectorContent_Serial, ptr %43, i32 0, i32 2
  %45 = load ptr, ptr %44, align 8, !tbaa !25
  %46 = getelementptr inbounds double, ptr %45, i64 1
  %47 = load double, ptr %46, align 8, !tbaa !18
  %48 = load ptr, ptr %6, align 8, !tbaa !16
  %49 = getelementptr inbounds nuw %struct._generic_N_Vector, ptr %48, i32 0, i32 0
  %50 = load ptr, ptr %49, align 8, !tbaa !22
  %51 = getelementptr inbounds nuw %struct._N_VectorContent_Serial, ptr %50, i32 0, i32 2
  %52 = load ptr, ptr %51, align 8, !tbaa !25
  %53 = getelementptr inbounds double, ptr %52, i64 2
  %54 = load double, ptr %53, align 8, !tbaa !18
  %55 = call i32 (ptr, ...) @printf(ptr noundef @.str.61, double noundef %40, double noundef %47, double noundef %54)
  %56 = load ptr, ptr %8, align 8, !tbaa !16
  %57 = getelementptr inbounds nuw %struct._generic_N_Vector, ptr %56, i32 0, i32 0
  %58 = load ptr, ptr %57, align 8, !tbaa !22
  %59 = getelementptr inbounds nuw %struct._N_VectorContent_Serial, ptr %58, i32 0, i32 2
  %60 = load ptr, ptr %59, align 8, !tbaa !25
  %61 = getelementptr inbounds double, ptr %60, i64 0
  %62 = load double, ptr %61, align 8, !tbaa !18
  %63 = fneg double %62
  %64 = load ptr, ptr %8, align 8, !tbaa !16
  %65 = getelementptr inbounds nuw %struct._generic_N_Vector, ptr %64, i32 0, i32 0
  %66 = load ptr, ptr %65, align 8, !tbaa !22
  %67 = getelementptr inbounds nuw %struct._N_VectorContent_Serial, ptr %66, i32 0, i32 2
  %68 = load ptr, ptr %67, align 8, !tbaa !25
  %69 = getelementptr inbounds double, ptr %68, i64 1
  %70 = load double, ptr %69, align 8, !tbaa !18
  %71 = fneg double %70
  %72 = load ptr, ptr %8, align 8, !tbaa !16
  %73 = getelementptr inbounds nuw %struct._generic_N_Vector, ptr %72, i32 0, i32 0
  %74 = load ptr, ptr %73, align 8, !tbaa !22
  %75 = getelementptr inbounds nuw %struct._N_VectorContent_Serial, ptr %74, i32 0, i32 2
  %76 = load ptr, ptr %75, align 8, !tbaa !25
  %77 = getelementptr inbounds double, ptr %76, i64 2
  %78 = load double, ptr %77, align 8, !tbaa !18
  %79 = fneg double %78
  %80 = call i32 (ptr, ...) @printf(ptr noundef @.str.62, double noundef %63, double noundef %71, double noundef %79)
  %81 = call i32 (ptr, ...) @printf(ptr noundef @.str.33)
  ret void
}