; Function Attrs: nofree nounwind uwtable
define internal fastcc void @PrintOutput(double noundef %0, ptr noundef readonly captures(none) %1, ptr noundef readonly captures(none) %2, ptr noundef readonly captures(none) %3) unnamed_addr #7 {
  %puts = tail call i32 @puts(ptr nonnull dereferenceable(1) @str.16)
  %5 = tail call i32 (ptr, ...) @printf(ptr noundef nonnull dereferenceable(1) @.str.56, double noundef %0)
  %6 = load ptr, ptr %2, align 8, !tbaa !13
  %7 = getelementptr inbounds nuw i8, ptr %6, i64 16
  %8 = load ptr, ptr %7, align 8, !tbaa !16
  %9 = load double, ptr %8, align 8, !tbaa !9
  %10 = getelementptr inbounds nuw i8, ptr %8, i64 8
  %11 = load double, ptr %10, align 8, !tbaa !9
  %12 = getelementptr inbounds nuw i8, ptr %8, i64 16
  %13 = load double, ptr %12, align 8, !tbaa !9
  %14 = tail call i32 (ptr, ...) @printf(ptr noundef nonnull dereferenceable(1) @.str.60, double noundef %9, double noundef %11, double noundef %13)
  %15 = load ptr, ptr %1, align 8, !tbaa !13
  %16 = getelementptr inbounds nuw i8, ptr %15, i64 16
  %17 = load ptr, ptr %16, align 8, !tbaa !16
  %18 = load double, ptr %17, align 8, !tbaa !9
  %19 = getelementptr inbounds nuw i8, ptr %17, i64 8
  %20 = load double, ptr %19, align 8, !tbaa !9
  %21 = getelementptr inbounds nuw i8, ptr %17, i64 16
  %22 = load double, ptr %21, align 8, !tbaa !9
  %23 = tail call i32 (ptr, ...) @printf(ptr noundef nonnull dereferenceable(1) @.str.61, double noundef %18, double noundef %20, double noundef %22)
  %24 = load ptr, ptr %3, align 8, !tbaa !13
  %25 = getelementptr inbounds nuw i8, ptr %24, i64 16
  %26 = load ptr, ptr %25, align 8, !tbaa !16
  %27 = load double, ptr %26, align 8, !tbaa !9
  %28 = fneg double %27
  %29 = getelementptr inbounds nuw i8, ptr %26, i64 8
  %30 = load double, ptr %29, align 8, !tbaa !9
  %31 = fneg double %30
  %32 = getelementptr inbounds nuw i8, ptr %26, i64 16
  %33 = load double, ptr %32, align 8, !tbaa !9
  %34 = fneg double %33
  %35 = tail call i32 (ptr, ...) @printf(ptr noundef nonnull dereferenceable(1) @.str.62, double noundef %28, double noundef %31, double noundef %34)
  %puts10 = tail call i32 @puts(ptr nonnull dereferenceable(1) @str.17)
  ret void
}